target datalayout = "e-m:e-p270:32:32-p271:32:32-p272:64:64-i64:64-i128:128-f80:128-n8:16:32:64-S128"
target triple = "x86_64-pc-linux-gnu"

%struct.PJconsts = type { ptr, ptr, ptr, ptr, ptr, ptr, ptr, ptr, ptr, ptr, ptr, ptr, i32, ptr, ptr, ptr, ptr, ptr, ptr, ptr, ptr, double, double, double, double, double, double, double, double, double, double, double, double, double, double, double, double, double, double, double, double, double, double, i32, i32, i32, i32, i32, i32, i32, i32, i32, i32, i32, ptr, ptr, ptr, ptr, ptr, ptr, double, double, double, double, double, double, double, double, double, double, double, i32, [7 x double], i32, ptr, ptr, double, double, i32, [4 x i8], %"class.std::shared_ptr", i8, double, i8, %"class.std::__cxx11::basic_string", %"class.std::__cxx11::basic_string", %"class.std::__cxx11::basic_string", i8, %"class.std::vector", i32, %"class.std::vector.3", i32, i8, i8, i8, ptr }
%"class.std::shared_ptr" = type { %"class.std::__shared_ptr" }
%"class.std::__shared_ptr" = type { ptr, %"class.std::__shared_count" }
%"class.std::__shared_count" = type { ptr }
%"class.std::__cxx11::basic_string" = type { %"struct.std::__cxx11::basic_string<char>::_Alloc_hider", i64, %union.anon }
%"struct.std::__cxx11::basic_string<char>::_Alloc_hider" = type { ptr }
%union.anon = type { i64, [8 x i8] }
%"class.std::vector" = type { %"struct.std::_Vector_base" }
%"struct.std::_Vector_base" = type { %"struct.std::_Vector_base<osgeo::proj::operation::GridDescription, std::allocator<osgeo::proj::operation::GridDescription>>::_Vector_impl" }
%"struct.std::_Vector_base<osgeo::proj::operation::GridDescription, std::allocator<osgeo::proj::operation::GridDescription>>::_Vector_impl" = type { %"struct.std::_Vector_base<osgeo::proj::operation::GridDescription, std::allocator<osgeo::proj::operation::GridDescription>>::_Vector_impl_data" }
%"struct.std::_Vector_base<osgeo::proj::operation::GridDescription, std::allocator<osgeo::proj::operation::GridDescription>>::_Vector_impl_data" = type { ptr, ptr, ptr }
%"class.std::vector.3" = type { %"struct.std::_Vector_base.4" }
%"struct.std::_Vector_base.4" = type { %"struct.std::_Vector_base<PJCoordOperation, std::allocator<PJCoordOperation>>::_Vector_impl" }
%"struct.std::_Vector_base<PJCoordOperation, std::allocator<PJCoordOperation>>::_Vector_impl" = type { %"struct.std::_Vector_base<PJCoordOperation, std::allocator<PJCoordOperation>>::_Vector_impl_data" }
%"struct.std::_Vector_base<PJCoordOperation, std::allocator<PJCoordOperation>>::_Vector_impl_data" = type { ptr, ptr, ptr }
%"struct.(anonymous namespace)::pj_laea_data" = type { double, double, double, double, double, double, double, double, ptr, i32 }
%struct.PJ_LP = type { double, double }
%struct.PJ_XY = type { double, double }

; Function Attrs: mustprogress uwtable
define internal { double, double } @_ZL14laea_e_inverse5PJ_XYP8PJconsts(double %0, double %1, ptr noundef %2) #0 {
  %4 = alloca %struct.PJ_LP, align 8
  %5 = alloca %struct.PJ_XY, align 8
  %6 = alloca ptr, align 8
  %7 = alloca ptr, align 8
  %8 = alloca double, align 8
  %9 = alloca double, align 8
  %10 = alloca double, align 8
  %11 = alloca double, align 8
  %12 = alloca double, align 8
  %13 = alloca i32, align 4
  %14 = alloca double, align 8
  %15 = getelementptr inbounds nuw { double, double }, ptr %5, i32 0, i32 0
  store double %0, ptr %15, align 8
  %16 = getelementptr inbounds nuw { double, double }, ptr %5, i32 0, i32 1
  store double %1, ptr %16, align 8
  store ptr %2, ptr %6, align 8, !tbaa !3
  call void @llvm.memset.p0.i64(ptr align 8 %4, i8 0, i64 16, i1 false)
  call void @llvm.lifetime.start.p0(i64 8, ptr %7) #7
  %17 = load ptr, ptr %6, align 8, !tbaa !3
  %18 = getelementptr inbounds nuw %struct.PJconsts, ptr %17, i32 0, i32 11
  %19 = load ptr, ptr %18, align 8, !tbaa !43
  store ptr %19, ptr %7, align 8, !tbaa !41
  call void @llvm.lifetime.start.p0(i64 8, ptr %8) #7
  call void @llvm.lifetime.start.p0(i64 8, ptr %9) #7
  call void @llvm.lifetime.start.p0(i64 8, ptr %10) #7
  call void @llvm.lifetime.start.p0(i64 8, ptr %11) #7
  call void @llvm.lifetime.start.p0(i64 8, ptr %12) #7
  store double 0.000000e+00, ptr %12, align 8, !tbaa !46
  %20 = load ptr, ptr %7, align 8, !tbaa !41
  %21 = getelementptr inbounds nuw %"struct.(anonymous namespace)::pj_laea_data", ptr %20, i32 0, i32 9
  %22 = load i32, ptr %21, align 8, !tbaa !47
  switch i32 %22, label %163 [
    i32 2, label %23
    i32 3, label %23
    i32 0, label %124
    i32 1, label %129
  ]

23:                                               ; preds = %3, %3
  %24 = load ptr, ptr %7, align 8, !tbaa !41
  %25 = getelementptr inbounds nuw %"struct.(anonymous namespace)::pj_laea_data", ptr %24, i32 0, i32 6
  %26 = load double, ptr %25, align 8, !tbaa !58
  %27 = getelementptr inbounds nuw %struct.PJ_XY, ptr %5, i32 0, i32 0
  %28 = load double, ptr %27, align 8, !tbaa !66
  %29 = fdiv double %28, %26
  store double %29, ptr %27, align 8, !tbaa !66
  %30 = load ptr, ptr %7, align 8, !tbaa !41
  %31 = getelementptr inbounds nuw %"struct.(anonymous namespace)::pj_laea_data", ptr %30, i32 0, i32 6
  %32 = load double, ptr %31, align 8, !tbaa !58
  %33 = getelementptr inbounds nuw %struct.PJ_XY, ptr %5, i32 0, i32 1
  %34 = load double, ptr %33, align 8, !tbaa !68
  %35 = fmul double %34, %32
  store double %35, ptr %33, align 8, !tbaa !68
  %36 = getelementptr inbounds nuw %struct.PJ_XY, ptr %5, i32 0, i32 0
  %37 = load double, ptr %36, align 8, !tbaa !66
  %38 = getelementptr inbounds nuw %struct.PJ_XY, ptr %5, i32 0, i32 1
  %39 = load double, ptr %38, align 8, !tbaa !68
  %40 = call double @hypot(double noundef %37, double noundef %39) #7, !tbaa !52
  store double %40, ptr %11, align 8, !tbaa !46
  %41 = load double, ptr %11, align 8, !tbaa !46
  %42 = fcmp olt double %41, 1.000000e-10
  br i1 %42, label %43, label %49

43:                                               ; preds = %23
  %44 = getelementptr inbounds nuw %struct.PJ_LP, ptr %4, i32 0, i32 0
  store double 0.000000e+00, ptr %44, align 8, !tbaa !69
  %45 = load ptr, ptr %6, align 8, !tbaa !3
  %46 = getelementptr inbounds nuw %struct.PJconsts, ptr %45, i32 0, i32 61
  %47 = load double, ptr %46, align 8, !tbaa !45
  %48 = getelementptr inbounds nuw %struct.PJ_LP, ptr %4, i32 0, i32 1
  store double %47, ptr %48, align 8, !tbaa !71
  store i32 1, ptr %13, align 4
  br label %177

49:                                               ; preds = %23
  call void @llvm.lifetime.start.p0(i64 8, ptr %14) #7
  %50 = load double, ptr %11, align 8, !tbaa !46
  %51 = fmul double 5.000000e-01, %50
  %52 = load ptr, ptr %7, align 8, !tbaa !41
  %53 = getelementptr inbounds nuw %"struct.(anonymous namespace)::pj_laea_data", ptr %52, i32 0, i32 7
  %54 = load double, ptr %53, align 8, !tbaa !59
  %55 = fdiv double %51, %54
  store double %55, ptr %14, align 8, !tbaa !46
  %56 = load double, ptr %14, align 8, !tbaa !46
  %57 = fcmp ogt double %56, 1.000000e+00
  br i1 %57, label %58, label %61

58:                                               ; preds = %49
  %59 = load ptr, ptr %6, align 8, !tbaa !3
  %60 = call i32 @proj_errno_set(ptr noundef %59, i32 noundef 2050)
  store i32 1, ptr %13, align 4
  br label %122

61:                                               ; preds = %49
  %62 = load double, ptr %14, align 8, !tbaa !46
  %63 = call double @asin(double noundef %62) #7, !tbaa !52
  %64 = fmul double 2.000000e+00, %63
  store double %64, ptr %9, align 8, !tbaa !46
  %65 = load double, ptr %9, align 8, !tbaa !46
  %66 = call double @cos(double noundef %65) #7, !tbaa !52
  store double %66, ptr %8, align 8, !tbaa !46
  %67 = load double, ptr %9, align 8, !tbaa !46
  %68 = call double @sin(double noundef %67) #7, !tbaa !52
  store double %68, ptr %9, align 8, !tbaa !46
  %69 = load double, ptr %9, align 8, !tbaa !46
  %70 = getelementptr inbounds nuw %struct.PJ_XY, ptr %5, i32 0, i32 0
  %71 = load double, ptr %70, align 8, !tbaa !66
  %72 = fmul double %71, %69
  store double %72, ptr %70, align 8, !tbaa !66
  %73 = load ptr, ptr %7, align 8, !tbaa !41
  %74 = getelementptr inbounds nuw %"struct.(anonymous namespace)::pj_laea_data", ptr %73, i32 0, i32 9
  %75 = load i32, ptr %74, align 8, !tbaa !47
  %76 = icmp eq i32 %75, 3
  br i1 %76, label %77, label %110

77:                                               ; preds = %61
  %78 = load double, ptr %8, align 8, !tbaa !46
  %79 = load ptr, ptr %7, align 8, !tbaa !41
  %80 = getelementptr inbounds nuw %"struct.(anonymous namespace)::pj_laea_data", ptr %79, i32 0, i32 0
  %81 = load double, ptr %80, align 8, !tbaa !62
  %82 = getelementptr inbounds nuw %struct.PJ_XY, ptr %5, i32 0, i32 1
  %83 = load double, ptr %82, align 8, !tbaa !68
  %84 = load double, ptr %9, align 8, !tbaa !46
  %85 = fmul double %83, %84
  %86 = load ptr, ptr %7, align 8, !tbaa !41
  %87 = getelementptr inbounds nuw %"struct.(anonymous namespace)::pj_laea_data", ptr %86, i32 0, i32 1
  %88 = load double, ptr %87, align 8, !tbaa !63
  %89 = fmul double %85, %88
  %90 = load double, ptr %11, align 8, !tbaa !46
  %91 = fdiv double %89, %90
  %92 = call double @llvm.fmuladd.f64(double %78, double %81, double %91)
  store double %92, ptr %12, align 8, !tbaa !46
  %93 = load double, ptr %11, align 8, !tbaa !46
  %94 = load ptr, ptr %7, align 8, !tbaa !41
  %95 = getelementptr inbounds nuw %"struct.(anonymous namespace)::pj_laea_data", ptr %94, i32 0, i32 1
  %96 = load double, ptr %95, align 8, !tbaa !63
  %97 = fmul double %93, %96
  %98 = load double, ptr %8, align 8, !tbaa !46
  %99 = getelementptr inbounds nuw %struct.PJ_XY, ptr %5, i32 0, i32 1
  %100 = load double, ptr %99, align 8, !tbaa !68
  %101 = load ptr, ptr %7, align 8, !tbaa !41
  %102 = getelementptr inbounds nuw %"struct.(anonymous namespace)::pj_laea_data", ptr %101, i32 0, i32 0
  %103 = load double, ptr %102, align 8, !tbaa !62
  %104 = fmul double %100, %103
  %105 = load double, ptr %9, align 8, !tbaa !46
  %106 = fmul double %104, %105
  %107 = fneg double %106
  %108 = call double @llvm.fmuladd.f64(double %97, double %98, double %107)
  %109 = getelementptr inbounds nuw %struct.PJ_XY, ptr %5, i32 0, i32 1
  store double %108, ptr %109, align 8, !tbaa !68
  br label %121

110:                                              ; preds = %61
  %111 = getelementptr inbounds nuw %struct.PJ_XY, ptr %5, i32 0, i32 1
  %112 = load double, ptr %111, align 8, !tbaa !68
  %113 = load double, ptr %9, align 8, !tbaa !46
  %114 = fmul double %112, %113
  %115 = load double, ptr %11, align 8, !tbaa !46
  %116 = fdiv double %114, %115
  store double %116, ptr %12, align 8, !tbaa !46
  %117 = load double, ptr %11, align 8, !tbaa !46
  %118 = load double, ptr %8, align 8, !tbaa !46
  %119 = fmul double %117, %118
  %120 = getelementptr inbounds nuw %struct.PJ_XY, ptr %5, i32 0, i32 1
  store double %119, ptr %120, align 8, !tbaa !68
  br label %121

121:                                              ; preds = %110, %77
  store i32 2, ptr %13, align 4
  br label %122

122:                                              ; preds = %121, %58
  call void @llvm.lifetime.end.p0(i64 8, ptr %14) #7
  %123 = load i32, ptr %13, align 4
  switch i32 %123, label %177 [
    i32 2, label %163
  ]

124:                                              ; preds = %3
  %125 = getelementptr inbounds nuw %struct.PJ_XY, ptr %5, i32 0, i32 1
  %126 = load double, ptr %125, align 8, !tbaa !68
  %127 = fneg double %126
  %128 = getelementptr inbounds nuw %struct.PJ_XY, ptr %5, i32 0, i32 1
  store double %127, ptr %128, align 8, !tbaa !68
  br label %129

129:                                              ; preds = %3, %124
  %130 = getelementptr inbounds nuw %struct.PJ_XY, ptr %5, i32 0, i32 0
  %131 = load double, ptr %130, align 8, !tbaa !66
  %132 = getelementptr inbounds nuw %struct.PJ_XY, ptr %5, i32 0, i32 0
  %133 = load double, ptr %132, align 8, !tbaa !66
  %134 = getelementptr inbounds nuw %struct.PJ_XY, ptr %5, i32 0, i32 1
  %135 = load double, ptr %134, align 8, !tbaa !68
  %136 = getelementptr inbounds nuw %struct.PJ_XY, ptr %5, i32 0, i32 1
  %137 = load double, ptr %136, align 8, !tbaa !68
  %138 = fmul double %135, %137
  %139 = call double @llvm.fmuladd.f64(double %131, double %133, double %138)
  store double %139, ptr %10, align 8, !tbaa !46
  %140 = load double, ptr %10, align 8, !tbaa !46
  %141 = fcmp oeq double %140, 0.000000e+00
  br i1 %141, label %142, label %148

142:                                              ; preds = %129
  %143 = getelementptr inbounds nuw %struct.PJ_LP, ptr %4, i32 0, i32 0
  store double 0.000000e+00, ptr %143, align 8, !tbaa !69
  %144 = load ptr, ptr %6, align 8, !tbaa !3
  %145 = getelementptr inbounds nuw %struct.PJconsts, ptr %144, i32 0, i32 61
  %146 = load double, ptr %145, align 8, !tbaa !45
  %147 = getelementptr inbounds nuw %struct.PJ_LP, ptr %4, i32 0, i32 1
  store double %146, ptr %147, align 8, !tbaa !71
  store i32 1, ptr %13, align 4
  br label %177

148:                                              ; preds = %129
  %149 = load double, ptr %10, align 8, !tbaa !46
  %150 = load ptr, ptr %7, align 8, !tbaa !41
  %151 = getelementptr inbounds nuw %"struct.(anonymous namespace)::pj_laea_data", ptr %150, i32 0, i32 5
  %152 = load double, ptr %151, align 8, !tbaa !55
  %153 = fdiv double %149, %152
  %154 = fsub double 1.000000e+00, %153
  store double %154, ptr %12, align 8, !tbaa !46
  %155 = load ptr, ptr %7, align 8, !tbaa !41
  %156 = getelementptr inbounds nuw %"struct.(anonymous namespace)::pj_laea_data", ptr %155, i32 0, i32 9
  %157 = load i32, ptr %156, align 8, !tbaa !47
  %158 = icmp eq i32 %157, 1
  br i1 %158, label %159, label %162

159:                                              ; preds = %148
  %160 = load double, ptr %12, align 8, !tbaa !46
  %161 = fneg double %160
  store double %161, ptr %12, align 8, !tbaa !46
  br label %162

162:                                              ; preds = %159, %148
  br label %163

163:                                              ; preds = %3, %162, %122
  %164 = getelementptr inbounds nuw %struct.PJ_XY, ptr %5, i32 0, i32 0
  %165 = load double, ptr %164, align 8, !tbaa !66
  %166 = getelementptr inbounds nuw %struct.PJ_XY, ptr %5, i32 0, i32 1
  %167 = load double, ptr %166, align 8, !tbaa !68
  %168 = call double @atan2(double noundef %165, double noundef %167) #7, !tbaa !52
  %169 = getelementptr inbounds nuw %struct.PJ_LP, ptr %4, i32 0, i32 0
  store double %168, ptr %169, align 8, !tbaa !69
  %170 = load double, ptr %12, align 8, !tbaa !46
  %171 = call double @asin(double noundef %170) #7, !tbaa !52
  %172 = load ptr, ptr %7, align 8, !tbaa !41
  %173 = getelementptr inbounds nuw %"struct.(anonymous namespace)::pj_laea_data", ptr %172, i32 0, i32 8
  %174 = load ptr, ptr %173, align 8, !tbaa !57
  %175 = call noundef double @_Z10pj_authlatdPd(double noundef %171, ptr noundef %174)
  %176 = getelementptr inbounds nuw %struct.PJ_LP, ptr %4, i32 0, i32 1
  store double %175, ptr %176, align 8, !tbaa !71
  store i32 1, ptr %13, align 4
  br label %177

177:                                              ; preds = %163, %142, %122, %43
  call void @llvm.lifetime.end.p0(i64 8, ptr %12) #7
  call void @llvm.lifetime.end.p0(i64 8, ptr %11) #7
  call void @llvm.lifetime.end.p0(i64 8, ptr %10) #7
  call void @llvm.lifetime.end.p0(i64 8, ptr %9) #7
  call void @llvm.lifetime.end.p0(i64 8, ptr %8) #7
  call void @llvm.lifetime.end.p0(i64 8, ptr %7) #7
  %178 = load { double, double }, ptr %4, align 8
  ret { double, double } %178
}