; Function Attrs: mustprogress uwtable
define internal { double, double } @_ZL14laea_e_inverse5PJ_XYP8PJconsts(double %0, double %1, ptr noundef %2) #0 {
  %4 = getelementptr inbounds nuw i8, ptr %2, i64 88
  %5 = load ptr, ptr %4, align 8, !tbaa !40
  %6 = getelementptr inbounds nuw i8, ptr %5, i64 72
  %7 = load i32, ptr %6, align 8, !tbaa !47
  switch i32 %7, label %.thread [
    i32 2, label %8
    i32 3, label %8
    i32 0, label %50
    i32 1, label %52
  ]

8:                                                ; preds = %3, %3
  %9 = getelementptr inbounds nuw i8, ptr %5, i64 48
  %10 = load double, ptr %9, align 8, !tbaa !54
  %11 = fdiv double %0, %10
  %12 = fmul double %1, %10
  %13 = tail call double @hypot(double noundef %11, double noundef %12) #7, !tbaa !49
  %14 = fcmp olt double %13, 1.000000e-10
  br i1 %14, label %15, label %18

15:                                               ; preds = %8
  %16 = getelementptr inbounds nuw i8, ptr %2, i64 448
  %17 = load double, ptr %16, align 8, !tbaa !42
  br label %72

18:                                               ; preds = %8
  %19 = fmul double %13, 5.000000e-01
  %20 = getelementptr inbounds nuw i8, ptr %5, i64 56
  %21 = load double, ptr %20, align 8, !tbaa !55
  %22 = fdiv double %19, %21
  %23 = fcmp ule double %22, 1.000000e+00
  br i1 %23, label %24, label %48

24:                                               ; preds = %18
  %25 = tail call double @asin(double noundef %22) #7, !tbaa !49
  %26 = fmul double %25, 2.000000e+00
  %27 = tail call double @cos(double noundef %26) #7, !tbaa !49
  %28 = tail call double @sin(double noundef %26) #7, !tbaa !49
  %29 = fmul double %11, %28
  %30 = icmp eq i32 %7, 3
  br i1 %30, label %31, label %44

31:                                               ; preds = %24
  %32 = load double, ptr %5, align 8, !tbaa !58
  %33 = fmul double %12, %28
  %34 = getelementptr inbounds nuw i8, ptr %5, i64 8
  %35 = load double, ptr %34, align 8, !tbaa !59
  %36 = fmul double %33, %35
  %37 = fdiv double %36, %13
  %38 = tail call double @llvm.fmuladd.f64(double %27, double %32, double %37)
  %39 = fmul double %13, %35
  %40 = fmul double %12, %32
  %41 = fneg double %28
  %42 = fmul double %40, %41
  %43 = tail call double @llvm.fmuladd.f64(double %39, double %27, double %42)
  br label %.thread

44:                                               ; preds = %24
  %45 = fmul double %12, %28
  %46 = fdiv double %45, %13
  %47 = fmul double %13, %27
  br label %.thread

48:                                               ; preds = %18
  %49 = tail call i32 @proj_errno_set(ptr noundef nonnull %2, i32 noundef 2050)
  br label %72

50:                                               ; preds = %3
  %51 = fneg double %1
  br label %52

52:                                               ; preds = %50, %3
  %.sroa.9.1 = phi double [ %1, %3 ], [ %51, %50 ]
  %53 = fmul double %.sroa.9.1, %.sroa.9.1
  %54 = tail call double @llvm.fmuladd.f64(double %0, double %0, double %53)
  %55 = fcmp oeq double %54, 0.000000e+00
  br i1 %55, label %56, label %59

56:                                               ; preds = %52
  %57 = getelementptr inbounds nuw i8, ptr %2, i64 448
  %58 = load double, ptr %57, align 8, !tbaa !42
  br label %72

59:                                               ; preds = %52
  %60 = getelementptr inbounds nuw i8, ptr %5, i64 40
  %61 = load double, ptr %60, align 8, !tbaa !52
  %62 = fdiv double %54, %61
  %63 = fsub double 1.000000e+00, %62
  %64 = icmp eq i32 %7, 1
  br i1 %64, label %65, label %.thread

65:                                               ; preds = %59
  %66 = fneg double %63
  br label %.thread

.thread:                                          ; preds = %44, %31, %59, %65, %3
  %.sroa.0.0 = phi double [ %0, %3 ], [ %0, %65 ], [ %0, %59 ], [ %29, %31 ], [ %29, %44 ]
  %.sroa.9.0 = phi double [ %1, %3 ], [ %.sroa.9.1, %65 ], [ %.sroa.9.1, %59 ], [ %43, %31 ], [ %47, %44 ]
  %.051 = phi double [ 0.000000e+00, %3 ], [ %66, %65 ], [ %63, %59 ], [ %38, %31 ], [ %46, %44 ]
  %67 = tail call double @atan2(double noundef %.sroa.0.0, double noundef %.sroa.9.0) #7, !tbaa !49
  %68 = tail call double @asin(double noundef %.051) #7, !tbaa !49
  %69 = getelementptr inbounds nuw i8, ptr %5, i64 64
  %70 = load ptr, ptr %69, align 8, !tbaa !43
  %71 = tail call noundef double @_Z10pj_authlatdPd(double noundef %68, ptr noundef %70)
  br label %72

72:                                               ; preds = %48, %.thread, %56, %15
  %.sroa.5.0 = phi double [ %71, %.thread ], [ %58, %56 ], [ %17, %15 ], [ 0.000000e+00, %48 ]
  %.sroa.050.0 = phi double [ %67, %.thread ], [ 0.000000e+00, %56 ], [ 0.000000e+00, %15 ], [ 0.000000e+00, %48 ]
  %.fca.0.insert = insertvalue { double, double } poison, double %.sroa.050.0, 0
  %.fca.1.insert = insertvalue { double, double } %.fca.0.insert, double %.sroa.5.0, 1
  ret { double, double } %.fca.1.insert
}